target datalayout = "e-m:e-p270:32:32-p271:32:32-p272:64:64-i64:64-i128:128-f80:128-n8:16:32:64-S128"
target triple = "x86_64-pc-linux-gnu"

@hf_netlogon_computer_name = internal global i32 0, align 4
@.str.252 = private unnamed_addr constant [14 x i8] c"Computer Name\00", align 1
@hf_netlogon_logonsrv_handle = internal global i32 0, align 4
@hf_netlogon_level16 = internal global i32 0, align 4
@.str.1135 = private unnamed_addr constant [14 x i8] c"Server Handle\00", align 1
@.str.1142 = private unnamed_addr constant [26 x i8] c"AUTHENTICATOR: credential\00", align 1
@.str.1143 = private unnamed_addr constant [36 x i8] c"AUTHENTICATOR: return_authenticator\00", align 1
@.str.1175 = private unnamed_addr constant [24 x i8] c"LEVEL: logoninformation\00", align 1

; Function Attrs: null_pointer_is_valid sspstrong uwtable
define internal i32 @netlogon_dissect_LOGONSRV_HANDLE(ptr noundef %0, i32 noundef %1, ptr noundef %2, ptr noundef %3, ptr noundef %4, ptr noundef %5) #0 {
  %7 = alloca ptr, align 8
  %8 = alloca i32, align 4
  %9 = alloca ptr, align 8
  %10 = alloca ptr, align 8
  %11 = alloca ptr, align 8
  %12 = alloca ptr, align 8
  store ptr %0, ptr %7, align 8
  store i32 %1, ptr %8, align 4
  store ptr %2, ptr %9, align 8
  store ptr %3, ptr %10, align 8
  store ptr %4, ptr %11, align 8
  store ptr %5, ptr %12, align 8
  %13 = load ptr, ptr %7, align 8
  %14 = load i32, ptr %8, align 4
  %15 = load ptr, ptr %9, align 8
  %16 = load ptr, ptr %10, align 8
  %17 = load ptr, ptr %11, align 8
  %18 = load ptr, ptr %12, align 8
  %19 = load i32, ptr @hf_netlogon_logonsrv_handle, align 4
  %20 = call i32 @dissect_ndr_str_pointer_item(ptr noundef %13, i32 noundef %14, ptr noundef %15, ptr noundef %16, ptr noundef %17, ptr noundef %18, i32 noundef 2, ptr noundef @.str.1135, i32 noundef %19, i32 noundef 0)
  store i32 %20, ptr %8, align 4
  %21 = load i32, ptr %8, align 4
  ret i32 %21
}

; Function Attrs: null_pointer_is_valid sspstrong uwtable
define internal i32 @netlogon_dissect_netrlogonsamlogoff_rqst(ptr noundef %0, i32 noundef %1, ptr noundef %2, ptr noundef %3, ptr noundef %4, ptr noundef %5) #0 {
  %7 = alloca ptr, align 8
  %8 = alloca i32, align 4
  %9 = alloca ptr, align 8
  %10 = alloca ptr, align 8
  %11 = alloca ptr, align 8
  %12 = alloca ptr, align 8
  store ptr %0, ptr %7, align 8
  store i32 %1, ptr %8, align 4
  store ptr %2, ptr %9, align 8
  store ptr %3, ptr %10, align 8
  store ptr %4, ptr %11, align 8
  store ptr %5, ptr %12, align 8
  %13 = load ptr, ptr %7, align 8
  %14 = load i32, ptr %8, align 4
  %15 = load ptr, ptr %9, align 8
  %16 = load ptr, ptr %10, align 8
  %17 = load ptr, ptr %11, align 8
  %18 = load ptr, ptr %12, align 8
  %19 = call i32 @netlogon_dissect_LOGONSRV_HANDLE(ptr noundef %13, i32 noundef %14, ptr noundef %15, ptr noundef %16, ptr noundef %17, ptr noundef %18)
  store i32 %19, ptr %8, align 4
  %20 = load ptr, ptr %7, align 8
  %21 = load i32, ptr %8, align 4
  %22 = load ptr, ptr %9, align 8
  %23 = load ptr, ptr %10, align 8
  %24 = load ptr, ptr %11, align 8
  %25 = load ptr, ptr %12, align 8
  %26 = load i32, ptr @hf_netlogon_computer_name, align 4
  %27 = call i32 @dissect_ndr_str_pointer_item(ptr noundef %20, i32 noundef %21, ptr noundef %22, ptr noundef %23, ptr noundef %24, ptr noundef %25, i32 noundef 2, ptr noundef @.str.252, i32 noundef %26, i32 noundef 0)
  store i32 %27, ptr %8, align 4
  %28 = load ptr, ptr %7, align 8
  %29 = load i32, ptr %8, align 4
  %30 = load ptr, ptr %9, align 8
  %31 = load ptr, ptr %10, align 8
  %32 = load ptr, ptr %11, align 8
  %33 = load ptr, ptr %12, align 8
  %34 = call i32 @dissect_ndr_pointer(ptr noundef %28, i32 noundef %29, ptr noundef %30, ptr noundef %31, ptr noundef %32, ptr noundef %33, ptr noundef @netlogon_dissect_AUTHENTICATOR, i32 noundef 2, ptr noundef @.str.1142, i32 noundef -1)
  store i32 %34, ptr %8, align 4
  %35 = load ptr, ptr %7, align 8
  %36 = load i32, ptr %8, align 4
  %37 = load ptr, ptr %9, align 8
  %38 = load ptr, ptr %10, align 8
  %39 = load ptr, ptr %11, align 8
  %40 = load ptr, ptr %12, align 8
  %41 = call i32 @dissect_ndr_pointer(ptr noundef %35, i32 noundef %36, ptr noundef %37, ptr noundef %38, ptr noundef %39, ptr noundef %40, ptr noundef @netlogon_dissect_AUTHENTICATOR, i32 noundef 2, ptr noundef @.str.1143, i32 noundef -1)
  store i32 %41, ptr %8, align 4
  %42 = load ptr, ptr %7, align 8
  %43 = load i32, ptr %8, align 4
  %44 = load ptr, ptr %9, align 8
  %45 = load ptr, ptr %10, align 8
  %46 = load ptr, ptr %11, align 8
  %47 = load ptr, ptr %12, align 8
  %48 = load i32, ptr @hf_netlogon_level16, align 4
  %49 = call i32 @dissect_ndr_uint16(ptr noundef %42, i32 noundef %43, ptr noundef %44, ptr noundef %45, ptr noundef %46, ptr noundef %47, i32 noundef %48, ptr noundef null)
  store i32 %49, ptr %8, align 4
  %50 = load ptr, ptr %7, align 8
  %51 = load i32, ptr %8, align 4
  %52 = load ptr, ptr %9, align 8
  %53 = load ptr, ptr %10, align 8
  %54 = load ptr, ptr %11, align 8
  %55 = load ptr, ptr %12, align 8
  %56 = call i32 @dissect_ndr_pointer(ptr noundef %50, i32 noundef %51, ptr noundef %52, ptr noundef %53, ptr noundef %54, ptr noundef %55, ptr noundef @netlogon_dissect_LEVEL, i32 noundef 1, ptr noundef @.str.1175, i32 noundef -1)
  store i32 %56, ptr %8, align 4
  %57 = load i32, ptr %8, align 4
  ret i32 %57
}